; Function Attrs: mustprogress nofree norecurse nosync nounwind willreturn memory(argmem: readwrite) uwtable
define noundef ptr @_ZN6icu_776number4impl29validateUFormattedNumberRangeEPK21UFormattedNumberRangeR10UErrorCode(ptr noundef readonly %0, ptr noundef nonnull align 4 captures(none) dereferenceable(4) %1) local_unnamed_addr #11 {
  %3 = load i32, ptr %1, align 4, !tbaa !13
  %4 = icmp slt i32 %3, 1
  br i1 %4, label %5, label %_ZN6icu_7713IcuCApiHelperI21UFormattedNumberRangeNS_6number4impl25UFormattedNumberRangeImplELi1178881536EE8validateEPKS1_R10UErrorCode.exit

5:                                                ; preds = %2
  %6 = icmp eq ptr %0, null
  br i1 %6, label %.sink.split.i, label %7

7:                                                ; preds = %5
  %8 = getelementptr inbounds nuw i8, ptr %0, i64 16
  %9 = load i32, ptr %8, align 4, !tbaa !20
  %.not9.i = icmp eq i32 %9, 1178881536
  br i1 %.not9.i, label %_ZN6icu_7713IcuCApiHelperI21UFormattedNumberRangeNS_6number4impl25UFormattedNumberRangeImplELi1178881536EE8validateEPKS1_R10UErrorCode.exit, label %.sink.split.i

.sink.split.i:                                    ; preds = %7, %5
  %.sink.i = phi i32 [ 1, %5 ], [ 3, %7 ]
  store i32 %.sink.i, ptr %1, align 4, !tbaa !13
  br label %_ZN6icu_7713IcuCApiHelperI21UFormattedNumberRangeNS_6number4impl25UFormattedNumberRangeImplELi1178881536EE8validateEPKS1_R10UErrorCode.exit

_ZN6icu_7713IcuCApiHelperI21UFormattedNumberRangeNS_6number4impl25UFormattedNumberRangeImplELi1178881536EE8validateEPKS1_R10UErrorCode.exit: ; preds = %2, %7, %.sink.split.i
  %10 = phi i32 [ %3, %2 ], [ %3, %7 ], [ %.sink.i, %.sink.split.i ]
  %.0.i = phi ptr [ null, %2 ], [ %0, %7 ], [ null, %.sink.split.i ]
  %11 = icmp slt i32 %10, 1
  %12 = getelementptr inbounds nuw i8, ptr %.0.i, i64 48
  %.0 = select i1 %11, ptr %12, ptr null
  ret ptr %.0
}